; Function Attrs: mustprogress uwtable
define noundef zeroext i16 @_ZN6icu_7720TransliteratorParser13getDotStandInER10UErrorCode(ptr noundef nonnull align 8 dereferenceable(498) %0, ptr noundef nonnull align 4 dereferenceable(4) %1) local_unnamed_addr #1 align 2 personality ptr @__gxx_personality_v0 {
  %3 = alloca %"class.icu_77::UnicodeString", align 8
  %4 = alloca %"class.icu_77::ConstChar16Ptr", align 8
  %5 = getelementptr inbounds nuw i8, ptr %0, i64 496
  %6 = load i16, ptr %5, align 8, !tbaa !79
  %7 = icmp eq i16 %6, -1
  br i1 %7, label %8, label %56

8:                                                ; preds = %2
  %9 = tail call noundef ptr @_ZN6icu_777UMemorynwEm(i64 noundef 200) #18
  %.not = icmp eq ptr %9, null
  br i1 %.not, label %55, label %10

10:                                               ; preds = %8
  call void @llvm.lifetime.start.p0(i64 64, ptr nonnull %3) #18
  store ptr @_ZL7DOT_SET, ptr %4, align 8, !tbaa !55
  invoke void @_ZN6icu_7713UnicodeStringC1EaNS_14ConstChar16PtrEi(ptr noundef nonnull align 8 dereferenceable(64) %3, i8 noundef signext 1, ptr noundef nonnull %4, i32 noundef -1)
          to label %11 unwind label %12

11:                                               ; preds = %10
  invoke void @_ZN6icu_7710UnicodeSetC1ERKNS_13UnicodeStringER10UErrorCode(ptr noundef nonnull align 8 dereferenceable(200) %9, ptr noundef nonnull align 8 dereferenceable(64) %3, ptr noundef nonnull align 4 dereferenceable(4) %1)
          to label %18 unwind label %14

12:                                               ; preds = %10
  %13 = landingpad { ptr, i32 }
          cleanup
  br label %16

14:                                               ; preds = %11
  %15 = landingpad { ptr, i32 }
          cleanup
  call void @_ZN6icu_7713UnicodeStringD1Ev(ptr noundef nonnull align 8 dereferenceable(64) %3) #18
  br label %16

16:                                               ; preds = %12, %14
  %.pn = phi { ptr, i32 } [ %15, %14 ], [ %13, %12 ]
  %17 = load ptr, ptr %4, align 8, !tbaa !55
  call void asm sideeffect "", "rm,~{memory},~{dirflag},~{fpsr},~{flags}"(ptr %17) #18, !srcloc !58
  call void @llvm.lifetime.end.p0(i64 64, ptr nonnull %3) #18
  call void @_ZN6icu_777UMemorydlEPv(ptr noundef nonnull %9) #18
  resume { ptr, i32 } %.pn

18:                                               ; preds = %11
  call void @_ZN6icu_7713UnicodeStringD1Ev(ptr noundef nonnull align 8 dereferenceable(64) %3) #18
  %19 = load ptr, ptr %4, align 8, !tbaa !55
  call void asm sideeffect "", "rm,~{memory},~{dirflag},~{fpsr},~{flags}"(ptr %19) #18, !srcloc !58
  call void @llvm.lifetime.end.p0(i64 64, ptr nonnull %3) #18
  %20 = getelementptr inbounds nuw i8, ptr %0, i64 192
  %21 = getelementptr inbounds nuw i8, ptr %0, i64 200
  %22 = load i32, ptr %21, align 8, !tbaa !38
  %23 = icmp sgt i32 %22, 0
  br i1 %23, label %.lr.ph.i, label %._crit_edge.i

.lr.ph.i:                                         ; preds = %18, %26
  %.01324.i = phi i32 [ %27, %26 ], [ 0, %18 ]
  %24 = call noundef ptr @_ZNK6icu_777UVector9elementAtEi(ptr noundef nonnull align 8 dereferenceable(40) %20, i32 noundef %.01324.i)
  %25 = icmp eq ptr %24, %9
  br i1 %25, label %30, label %26

26:                                               ; preds = %.lr.ph.i
  %27 = add nuw nsw i32 %.01324.i, 1
  %28 = load i32, ptr %21, align 8, !tbaa !38
  %29 = icmp slt i32 %27, %28
  br i1 %29, label %.lr.ph.i, label %._crit_edge.i, !llvm.loop !75

30:                                               ; preds = %.lr.ph.i
  %31 = getelementptr inbounds nuw i8, ptr %0, i64 96
  %32 = load ptr, ptr %31, align 8, !tbaa !66
  %33 = getelementptr inbounds nuw i8, ptr %32, i64 1162
  %34 = load i16, ptr %33, align 2, !tbaa !31
  %35 = trunc i32 %.01324.i to i16
  %36 = add i16 %34, %35
  br label %.thread27

._crit_edge.i:                                    ; preds = %26, %18
  %37 = getelementptr inbounds nuw i8, ptr %0, i64 424
  %38 = load i16, ptr %37, align 8, !tbaa !76
  %39 = getelementptr inbounds nuw i8, ptr %0, i64 426
  %40 = load i16, ptr %39, align 2, !tbaa !77
  %.not.i = icmp ult i16 %38, %40
  br i1 %.not.i, label %45, label %41

41:                                               ; preds = %._crit_edge.i
  %42 = load ptr, ptr %9, align 8, !tbaa !15
  %43 = getelementptr inbounds nuw i8, ptr %42, i64 8
  %44 = load ptr, ptr %43, align 8
  call void %44(ptr noundef nonnull align 8 dereferenceable(8) %9) #18
  store i32 65565, ptr %1, align 4, !tbaa !13
  br label %.thread27

45:                                               ; preds = %._crit_edge.i
  call void @_ZN6icu_777UVector10addElementEPvR10UErrorCode(ptr noundef nonnull align 8 dereferenceable(40) %20, ptr noundef nonnull %9, ptr noundef nonnull align 4 dereferenceable(4) %1)
  %46 = load i32, ptr %1, align 4, !tbaa !13
  %47 = icmp slt i32 %46, 1
  br i1 %47, label %52, label %48

48:                                               ; preds = %45
  %49 = load ptr, ptr %9, align 8, !tbaa !15
  %50 = getelementptr inbounds nuw i8, ptr %49, i64 8
  %51 = load ptr, ptr %50, align 8
  call void %51(ptr noundef nonnull align 8 dereferenceable(8) %9) #18
  br label %.thread27

52:                                               ; preds = %45
  %53 = load i16, ptr %37, align 8, !tbaa !76
  %54 = add i16 %53, 1
  store i16 %54, ptr %37, align 8, !tbaa !76
  br label %.thread27

.thread27:                                        ; preds = %52, %48, %41, %30
  %.1.i = phi i16 [ %36, %30 ], [ 0, %41 ], [ %53, %52 ], [ 0, %48 ]
  store i16 %.1.i, ptr %5, align 8, !tbaa !79
  br label %56

55:                                               ; preds = %8
  store i32 7, ptr %1, align 4, !tbaa !13
  br label %56

56:                                               ; preds = %2, %.thread27, %55
  %.1 = phi i16 [ 0, %55 ], [ %.1.i, %.thread27 ], [ %6, %2 ]
  ret i16 %.1
}